target datalayout = "e-m:e-p270:32:32-p271:32:32-p272:64:64-i64:64-i128:128-f80:128-n8:16:32:64-S128"
target triple = "x86_64-pc-linux-gnu"

%"class.bParse::bFile" = type <{ ptr, [7 x i8], i8, ptr, i32, i32, %class.b3HashMap, i32, [4 x i8], ptr, ptr, %class.b3AlignedObjectArray.4, %class.b3AlignedObjectArray.4, %class.b3AlignedObjectArray.6, %class.b3HashMap.8, %class.b3HashMap, i32, [4 x i8] }>
%class.b3AlignedObjectArray.4 = type <{ [4 x i8], i32, i32, [4 x i8], ptr, i8, [7 x i8] }>
%class.b3AlignedObjectArray.6 = type <{ [4 x i8], i32, i32, [4 x i8], ptr, i8, [7 x i8] }>
%class.b3HashMap.8 = type { %class.b3AlignedObjectArray, %class.b3AlignedObjectArray, %class.b3AlignedObjectArray.6, %class.b3AlignedObjectArray.2 }
%class.b3AlignedObjectArray = type <{ [4 x i8], i32, i32, [4 x i8], ptr, i8, [7 x i8] }>
%class.b3AlignedObjectArray.2 = type <{ [4 x i8], i32, i32, [4 x i8], ptr, i8, [7 x i8] }>
%class.b3HashMap = type { %class.b3AlignedObjectArray, %class.b3AlignedObjectArray, %class.b3AlignedObjectArray.0, %class.b3AlignedObjectArray.2 }
%class.b3AlignedObjectArray.0 = type <{ [4 x i8], i32, i32, [4 x i8], ptr, i8, [7 x i8] }>

@.str.7 = private unnamed_addr constant [3 x i8] c"wb\00", align 1

; Function Attrs: mustprogress uwtable
define dso_local void @_ZN6bParse5bFile9writeFileEPKc(ptr noundef nonnull align 8 dereferenceable(540) %0, ptr noundef %1) #0 align 2 {
  %3 = alloca ptr, align 8
  %4 = alloca ptr, align 8
  %5 = alloca ptr, align 8
  store ptr %0, ptr %3, align 8, !tbaa !16
  store ptr %1, ptr %4, align 8, !tbaa !4
  %6 = load ptr, ptr %3, align 8
  call void @llvm.lifetime.start.p0(i64 8, ptr %5) #16
  %7 = load ptr, ptr %4, align 8, !tbaa !4
  %8 = call noalias ptr @fopen(ptr noundef %7, ptr noundef @.str.7)
  store ptr %8, ptr %5, align 8, !tbaa !48
  %9 = getelementptr inbounds nuw %"class.bParse::bFile", ptr %6, i32 0, i32 3
  %10 = load ptr, ptr %9, align 8, !tbaa !40
  %11 = getelementptr inbounds nuw %"class.bParse::bFile", ptr %6, i32 0, i32 4
  %12 = load i32, ptr %11, align 8, !tbaa !41
  %13 = sext i32 %12 to i64
  %14 = load ptr, ptr %5, align 8, !tbaa !48
  %15 = call i64 @fwrite(ptr noundef %10, i64 noundef 1, i64 noundef %13, ptr noundef %14)
  %16 = load ptr, ptr %5, align 8, !tbaa !48
  %17 = call i32 @fclose(ptr noundef %16)
  call void @llvm.lifetime.end.p0(i64 8, ptr %5) #16
  ret void
}