; Function Attrs: mustprogress nofree nounwind uwtable
define dso_local void @_ZN6bParse5bFile9writeFileEPKc(ptr noundef nonnull readonly align 8 captures(none) dereferenceable(540) %0, ptr noundef readonly captures(none) %1) local_unnamed_addr #8 align 2 {
  %3 = tail call noalias ptr @fopen(ptr noundef %1, ptr noundef nonnull @.str.7)
  %4 = getelementptr inbounds nuw i8, ptr %0, i64 16
  %5 = load ptr, ptr %4, align 8, !tbaa !59
  %6 = getelementptr inbounds nuw i8, ptr %0, i64 24
  %7 = load i32, ptr %6, align 8, !tbaa !58
  %8 = sext i32 %7 to i64
  %9 = tail call i64 @fwrite(ptr noundef %5, i64 noundef 1, i64 noundef %8, ptr noundef %3)
  %10 = tail call i32 @fclose(ptr noundef %3)
  ret void
}